; Function Attrs: mustprogress nounwind uwtable
define hidden void @_ZNK6hermes2vm11HermesValue4dumpERN4llvh11raw_ostreamE(ptr noundef nonnull readonly align 8 captures(none) dereferenceable(8) %this, ptr noundef nonnull align 8 dereferenceable(36) %os) local_unnamed_addr #0 align 2 {
entry:
  %agg.tmp.sroa.0.0.copyload = load i64, ptr %this, align 8
  %call = tail call noundef nonnull align 8 dereferenceable(36) ptr @_ZN6hermes2vmlsERN4llvh11raw_ostreamENS0_11HermesValueE(ptr noundef nonnull align 8 dereferenceable(36) %os, i64 %agg.tmp.sroa.0.0.copyload)
  %OutBufEnd.i5.i = getelementptr inbounds nuw i8, ptr %call, i64 16
  %0 = load ptr, ptr %OutBufEnd.i5.i, align 8
  %OutBufCur.i6.i = getelementptr inbounds nuw i8, ptr %call, i64 24
  %1 = load ptr, ptr %OutBufCur.i6.i, align 8
  %cmp.i.i = icmp eq ptr %0, %1
  br i1 %cmp.i.i, label %if.then.i.i, label %if.then4.i.i

if.then.i.i:                                      ; preds = %entry
  %call3.i.i = tail call noundef nonnull align 8 dereferenceable(36) ptr @_ZN4llvh11raw_ostream5writeEPKcm(ptr noundef nonnull align 8 dereferenceable(36) %call, ptr noundef nonnull @.str, i64 noundef 1) #7
  br label %_ZN4llvh11raw_ostreamlsEPKc.exit

if.then4.i.i:                                     ; preds = %entry
  store i8 10, ptr %1, align 1
  %2 = load ptr, ptr %OutBufCur.i6.i, align 8
  %add.ptr.i.i = getelementptr inbounds nuw i8, ptr %2, i64 1
  store ptr %add.ptr.i.i, ptr %OutBufCur.i6.i, align 8
  br label %_ZN4llvh11raw_ostreamlsEPKc.exit

_ZN4llvh11raw_ostreamlsEPKc.exit:                 ; preds = %if.then.i.i, %if.then4.i.i
  ret void
}